; Function Attrs: nofree norecurse nosync nounwind memory(argmem: readwrite) uwtable
define internal void @tm_16x16_c(ptr noundef writeonly captures(none) %0, i64 noundef %1, ptr noundef readonly captures(none) %2, ptr noundef readonly captures(none) %3) #2 {
  %5 = getelementptr inbounds i8, ptr %3, i64 -1
  %6 = load i8, ptr %5, align 1, !tbaa !8
  %7 = zext i8 %6 to i32
  %8 = getelementptr inbounds nuw i8, ptr %3, i64 1
  %9 = getelementptr inbounds nuw i8, ptr %3, i64 2
  %10 = getelementptr inbounds nuw i8, ptr %3, i64 3
  %11 = getelementptr inbounds nuw i8, ptr %3, i64 4
  %12 = getelementptr inbounds nuw i8, ptr %3, i64 5
  %13 = getelementptr inbounds nuw i8, ptr %3, i64 6
  %14 = getelementptr inbounds nuw i8, ptr %3, i64 7
  %15 = getelementptr inbounds nuw i8, ptr %3, i64 8
  %16 = getelementptr inbounds nuw i8, ptr %3, i64 9
  %17 = getelementptr inbounds nuw i8, ptr %3, i64 10
  %18 = getelementptr inbounds nuw i8, ptr %3, i64 11
  %19 = getelementptr inbounds nuw i8, ptr %3, i64 12
  %20 = getelementptr inbounds nuw i8, ptr %3, i64 13
  %21 = getelementptr inbounds nuw i8, ptr %3, i64 14
  %22 = getelementptr inbounds nuw i8, ptr %3, i64 15
  br label %23

23:                                               ; preds = %4, %23
  %indvars.iv = phi i64 [ 0, %4 ], [ %indvars.iv.next, %23 ]
  %.0106 = phi ptr [ %0, %4 ], [ %124, %23 ]
  %24 = sub nuw nsw i64 15, %indvars.iv
  %25 = getelementptr inbounds nuw i8, ptr %2, i64 %24
  %26 = load i8, ptr %25, align 1, !tbaa !8
  %27 = zext i8 %26 to i32
  %28 = sub nsw i32 %27, %7
  %29 = load i8, ptr %3, align 1, !tbaa !8
  %30 = zext i8 %29 to i32
  %31 = add nsw i32 %28, %30
  %.not.i = icmp ult i32 %31, 256
  %isnotneg.i = icmp sgt i32 %31, -1
  %32 = sext i1 %isnotneg.i to i8
  %33 = trunc nuw i32 %31 to i8
  %.0.i = select i1 %.not.i, i8 %33, i8 %32
  store i8 %.0.i, ptr %.0106, align 1, !tbaa !8
  %34 = load i8, ptr %8, align 1, !tbaa !8
  %35 = zext i8 %34 to i32
  %36 = add nsw i32 %28, %35
  %.not.i60 = icmp ult i32 %36, 256
  %isnotneg.i61 = icmp sgt i32 %36, -1
  %37 = sext i1 %isnotneg.i61 to i8
  %38 = trunc nuw i32 %36 to i8
  %.0.i62 = select i1 %.not.i60, i8 %38, i8 %37
  %39 = getelementptr inbounds nuw i8, ptr %.0106, i64 1
  store i8 %.0.i62, ptr %39, align 1, !tbaa !8
  %40 = load i8, ptr %9, align 1, !tbaa !8
  %41 = zext i8 %40 to i32
  %42 = add nsw i32 %28, %41
  %.not.i63 = icmp ult i32 %42, 256
  %isnotneg.i64 = icmp sgt i32 %42, -1
  %43 = sext i1 %isnotneg.i64 to i8
  %44 = trunc nuw i32 %42 to i8
  %.0.i65 = select i1 %.not.i63, i8 %44, i8 %43
  %45 = getelementptr inbounds nuw i8, ptr %.0106, i64 2
  store i8 %.0.i65, ptr %45, align 1, !tbaa !8
  %46 = load i8, ptr %10, align 1, !tbaa !8
  %47 = zext i8 %46 to i32
  %48 = add nsw i32 %28, %47
  %.not.i66 = icmp ult i32 %48, 256
  %isnotneg.i67 = icmp sgt i32 %48, -1
  %49 = sext i1 %isnotneg.i67 to i8
  %50 = trunc nuw i32 %48 to i8
  %.0.i68 = select i1 %.not.i66, i8 %50, i8 %49
  %51 = getelementptr inbounds nuw i8, ptr %.0106, i64 3
  store i8 %.0.i68, ptr %51, align 1, !tbaa !8
  %52 = load i8, ptr %11, align 1, !tbaa !8
  %53 = zext i8 %52 to i32
  %54 = add nsw i32 %28, %53
  %.not.i69 = icmp ult i32 %54, 256
  %isnotneg.i70 = icmp sgt i32 %54, -1
  %55 = sext i1 %isnotneg.i70 to i8
  %56 = trunc nuw i32 %54 to i8
  %.0.i71 = select i1 %.not.i69, i8 %56, i8 %55
  %57 = getelementptr inbounds nuw i8, ptr %.0106, i64 4
  store i8 %.0.i71, ptr %57, align 1, !tbaa !8
  %58 = load i8, ptr %12, align 1, !tbaa !8
  %59 = zext i8 %58 to i32
  %60 = add nsw i32 %28, %59
  %.not.i72 = icmp ult i32 %60, 256
  %isnotneg.i73 = icmp sgt i32 %60, -1
  %61 = sext i1 %isnotneg.i73 to i8
  %62 = trunc nuw i32 %60 to i8
  %.0.i74 = select i1 %.not.i72, i8 %62, i8 %61
  %63 = getelementptr inbounds nuw i8, ptr %.0106, i64 5
  store i8 %.0.i74, ptr %63, align 1, !tbaa !8
  %64 = load i8, ptr %13, align 1, !tbaa !8
  %65 = zext i8 %64 to i32
  %66 = add nsw i32 %28, %65
  %.not.i75 = icmp ult i32 %66, 256
  %isnotneg.i76 = icmp sgt i32 %66, -1
  %67 = sext i1 %isnotneg.i76 to i8
  %68 = trunc nuw i32 %66 to i8
  %.0.i77 = select i1 %.not.i75, i8 %68, i8 %67
  %69 = getelementptr inbounds nuw i8, ptr %.0106, i64 6
  store i8 %.0.i77, ptr %69, align 1, !tbaa !8
  %70 = load i8, ptr %14, align 1, !tbaa !8
  %71 = zext i8 %70 to i32
  %72 = add nsw i32 %28, %71
  %.not.i78 = icmp ult i32 %72, 256
  %isnotneg.i79 = icmp sgt i32 %72, -1
  %73 = sext i1 %isnotneg.i79 to i8
  %74 = trunc nuw i32 %72 to i8
  %.0.i80 = select i1 %.not.i78, i8 %74, i8 %73
  %75 = getelementptr inbounds nuw i8, ptr %.0106, i64 7
  store i8 %.0.i80, ptr %75, align 1, !tbaa !8
  %76 = load i8, ptr %15, align 1, !tbaa !8
  %77 = zext i8 %76 to i32
  %78 = add nsw i32 %28, %77
  %.not.i81 = icmp ult i32 %78, 256
  %isnotneg.i82 = icmp sgt i32 %78, -1
  %79 = sext i1 %isnotneg.i82 to i8
  %80 = trunc nuw i32 %78 to i8
  %.0.i83 = select i1 %.not.i81, i8 %80, i8 %79
  %81 = getelementptr inbounds nuw i8, ptr %.0106, i64 8
  store i8 %.0.i83, ptr %81, align 1, !tbaa !8
  %82 = load i8, ptr %16, align 1, !tbaa !8
  %83 = zext i8 %82 to i32
  %84 = add nsw i32 %28, %83
  %.not.i84 = icmp ult i32 %84, 256
  %isnotneg.i85 = icmp sgt i32 %84, -1
  %85 = sext i1 %isnotneg.i85 to i8
  %86 = trunc nuw i32 %84 to i8
  %.0.i86 = select i1 %.not.i84, i8 %86, i8 %85
  %87 = getelementptr inbounds nuw i8, ptr %.0106, i64 9
  store i8 %.0.i86, ptr %87, align 1, !tbaa !8
  %88 = load i8, ptr %17, align 1, !tbaa !8
  %89 = zext i8 %88 to i32
  %90 = add nsw i32 %28, %89
  %.not.i87 = icmp ult i32 %90, 256
  %isnotneg.i88 = icmp sgt i32 %90, -1
  %91 = sext i1 %isnotneg.i88 to i8
  %92 = trunc nuw i32 %90 to i8
  %.0.i89 = select i1 %.not.i87, i8 %92, i8 %91
  %93 = getelementptr inbounds nuw i8, ptr %.0106, i64 10
  store i8 %.0.i89, ptr %93, align 1, !tbaa !8
  %94 = load i8, ptr %18, align 1, !tbaa !8
  %95 = zext i8 %94 to i32
  %96 = add nsw i32 %28, %95
  %.not.i90 = icmp ult i32 %96, 256
  %isnotneg.i91 = icmp sgt i32 %96, -1
  %97 = sext i1 %isnotneg.i91 to i8
  %98 = trunc nuw i32 %96 to i8
  %.0.i92 = select i1 %.not.i90, i8 %98, i8 %97
  %99 = getelementptr inbounds nuw i8, ptr %.0106, i64 11
  store i8 %.0.i92, ptr %99, align 1, !tbaa !8
  %100 = load i8, ptr %19, align 1, !tbaa !8
  %101 = zext i8 %100 to i32
  %102 = add nsw i32 %28, %101
  %.not.i93 = icmp ult i32 %102, 256
  %isnotneg.i94 = icmp sgt i32 %102, -1
  %103 = sext i1 %isnotneg.i94 to i8
  %104 = trunc nuw i32 %102 to i8
  %.0.i95 = select i1 %.not.i93, i8 %104, i8 %103
  %105 = getelementptr inbounds nuw i8, ptr %.0106, i64 12
  store i8 %.0.i95, ptr %105, align 1, !tbaa !8
  %106 = load i8, ptr %20, align 1, !tbaa !8
  %107 = zext i8 %106 to i32
  %108 = add nsw i32 %28, %107
  %.not.i96 = icmp ult i32 %108, 256
  %isnotneg.i97 = icmp sgt i32 %108, -1
  %109 = sext i1 %isnotneg.i97 to i8
  %110 = trunc nuw i32 %108 to i8
  %.0.i98 = select i1 %.not.i96, i8 %110, i8 %109
  %111 = getelementptr inbounds nuw i8, ptr %.0106, i64 13
  store i8 %.0.i98, ptr %111, align 1, !tbaa !8
  %112 = load i8, ptr %21, align 1, !tbaa !8
  %113 = zext i8 %112 to i32
  %114 = add nsw i32 %28, %113
  %.not.i99 = icmp ult i32 %114, 256
  %isnotneg.i100 = icmp sgt i32 %114, -1
  %115 = sext i1 %isnotneg.i100 to i8
  %116 = trunc nuw i32 %114 to i8
  %.0.i101 = select i1 %.not.i99, i8 %116, i8 %115
  %117 = getelementptr inbounds nuw i8, ptr %.0106, i64 14
  store i8 %.0.i101, ptr %117, align 1, !tbaa !8
  %118 = load i8, ptr %22, align 1, !tbaa !8
  %119 = zext i8 %118 to i32
  %120 = add nsw i32 %28, %119
  %.not.i102 = icmp ult i32 %120, 256
  %isnotneg.i103 = icmp sgt i32 %120, -1
  %121 = sext i1 %isnotneg.i103 to i8
  %122 = trunc nuw i32 %120 to i8
  %.0.i104 = select i1 %.not.i102, i8 %122, i8 %121
  %123 = getelementptr inbounds nuw i8, ptr %.0106, i64 15
  store i8 %.0.i104, ptr %123, align 1, !tbaa !8
  %124 = getelementptr inbounds i8, ptr %.0106, i64 %1
  %indvars.iv.next = add nuw nsw i64 %indvars.iv, 1
  %exitcond.not = icmp eq i64 %indvars.iv.next, 16
  br i1 %exitcond.not, label %125, label %23, !llvm.loop !53

125:                                              ; preds = %23
  ret void
}